; Function Attrs: mustprogress uwtable
define internal fastcc void @_ZNK7rocksdb12_GLOBAL__N_116BackupEngineImpl17GetPrivateFileRelEjbRKNSt7__cxx1112basic_stringIcSt11char_traitsIcESaIcEEE(ptr noalias align 8 %agg.result, i32 noundef %backup_id, ptr noundef nonnull align 8 dereferenceable(32) %file) unnamed_addr #3 align 2 personality ptr @__gxx_personality_v0 {
entry:
  %ref.tmp = alloca %"class.std::__cxx11::basic_string", align 8
  %ref.tmp2 = alloca %"class.std::__cxx11::basic_string", align 8
  %ref.tmp3 = alloca %"class.std::__cxx11::basic_string", align 8
  %ref.tmp4 = alloca %"class.std::__cxx11::basic_string", align 8
  call void @_ZNSt7__cxx119to_stringEj(ptr nonnull sret(%"class.std::__cxx11::basic_string") align 8 %ref.tmp4, i32 noundef %backup_id) #33
  %call.i4 = invoke noundef nonnull align 8 dereferenceable(32) ptr @_ZNSt7__cxx1112basic_stringIcSt11char_traitsIcESaIcEE6insertEmRKS4_(ptr noundef nonnull align 8 dereferenceable(32) %ref.tmp4, i64 noundef 0, ptr noundef nonnull align 8 dereferenceable(32) @_ZN7rocksdb12_GLOBAL__N_116kPrivateDirSlashB5cxx11E)
          to label %invoke.cont unwind label %lpad

invoke.cont:                                      ; preds = %entry
  call void @_ZNSt7__cxx1112basic_stringIcSt11char_traitsIcESaIcEEC1EOS4_(ptr noundef nonnull align 8 dereferenceable(32) %ref.tmp3, ptr noundef nonnull align 8 dereferenceable(32) %call.i4) #33
  %call.i5 = invoke noundef nonnull align 8 dereferenceable(32) ptr @_ZNSt7__cxx1112basic_stringIcSt11char_traitsIcESaIcEE6appendEPKc(ptr noundef nonnull align 8 dereferenceable(32) %ref.tmp3, ptr noundef nonnull @.str.42)
          to label %invoke.cont6 unwind label %lpad5

invoke.cont6:                                     ; preds = %invoke.cont
  call void @_ZNSt7__cxx1112basic_stringIcSt11char_traitsIcESaIcEEC1EOS4_(ptr noundef nonnull align 8 dereferenceable(32) %ref.tmp2, ptr noundef nonnull align 8 dereferenceable(32) %call.i5) #33
  %call.i6 = invoke noundef nonnull align 8 dereferenceable(32) ptr @_ZNSt7__cxx1112basic_stringIcSt11char_traitsIcESaIcEE6appendEPKc(ptr noundef nonnull align 8 dereferenceable(32) %ref.tmp2, ptr noundef nonnull @.str.9)
          to label %invoke.cont8 unwind label %lpad7

invoke.cont8:                                     ; preds = %invoke.cont6
  call void @_ZNSt7__cxx1112basic_stringIcSt11char_traitsIcESaIcEEC1EOS4_(ptr noundef nonnull align 8 dereferenceable(32) %ref.tmp, ptr noundef nonnull align 8 dereferenceable(32) %call.i6) #33
  %call.i8 = invoke noundef nonnull align 8 dereferenceable(32) ptr @_ZNSt7__cxx1112basic_stringIcSt11char_traitsIcESaIcEE6appendERKS4_(ptr noundef nonnull align 8 dereferenceable(32) %ref.tmp, ptr noundef nonnull align 8 dereferenceable(32) %file)
          to label %invoke.cont10 unwind label %lpad9

invoke.cont10:                                    ; preds = %invoke.cont8
  call void @_ZNSt7__cxx1112basic_stringIcSt11char_traitsIcESaIcEEC1EOS4_(ptr noundef nonnull align 8 dereferenceable(32) %agg.result, ptr noundef nonnull align 8 dereferenceable(32) %call.i8) #33
  call void @_ZNSt7__cxx1112basic_stringIcSt11char_traitsIcESaIcEED1Ev(ptr noundef nonnull align 8 dereferenceable(32) %ref.tmp) #33
  call void @_ZNSt7__cxx1112basic_stringIcSt11char_traitsIcESaIcEED1Ev(ptr noundef nonnull align 8 dereferenceable(32) %ref.tmp2) #33
  call void @_ZNSt7__cxx1112basic_stringIcSt11char_traitsIcESaIcEED1Ev(ptr noundef nonnull align 8 dereferenceable(32) %ref.tmp3) #33
  call void @_ZNSt7__cxx1112basic_stringIcSt11char_traitsIcESaIcEED1Ev(ptr noundef nonnull align 8 dereferenceable(32) %ref.tmp4) #33
  ret void

lpad:                                             ; preds = %entry
  %0 = landingpad { ptr, i32 }
          cleanup
  br label %ehcleanup12

lpad5:                                            ; preds = %invoke.cont
  %1 = landingpad { ptr, i32 }
          cleanup
  br label %ehcleanup11

lpad7:                                            ; preds = %invoke.cont6
  %2 = landingpad { ptr, i32 }
          cleanup
  br label %ehcleanup

lpad9:                                            ; preds = %invoke.cont8
  %3 = landingpad { ptr, i32 }
          cleanup
  call void @_ZNSt7__cxx1112basic_stringIcSt11char_traitsIcESaIcEED1Ev(ptr noundef nonnull align 8 dereferenceable(32) %ref.tmp) #33
  br label %ehcleanup

ehcleanup:                                        ; preds = %lpad9, %lpad7
  %.pn = phi { ptr, i32 } [ %3, %lpad9 ], [ %2, %lpad7 ]
  call void @_ZNSt7__cxx1112basic_stringIcSt11char_traitsIcESaIcEED1Ev(ptr noundef nonnull align 8 dereferenceable(32) %ref.tmp2) #33
  br label %ehcleanup11

ehcleanup11:                                      ; preds = %ehcleanup, %lpad5
  %.pn.pn = phi { ptr, i32 } [ %.pn, %ehcleanup ], [ %1, %lpad5 ]
  call void @_ZNSt7__cxx1112basic_stringIcSt11char_traitsIcESaIcEED1Ev(ptr noundef nonnull align 8 dereferenceable(32) %ref.tmp3) #33
  br label %ehcleanup12

ehcleanup12:                                      ; preds = %ehcleanup11, %lpad
  %.pn.pn.pn = phi { ptr, i32 } [ %.pn.pn, %ehcleanup11 ], [ %0, %lpad ]
  call void @_ZNSt7__cxx1112basic_stringIcSt11char_traitsIcESaIcEED1Ev(ptr noundef nonnull align 8 dereferenceable(32) %ref.tmp4) #33
  resume { ptr, i32 } %.pn.pn.pn
}